target datalayout = "e-m:e-p270:32:32-p271:32:32-p272:64:64-i64:64-i128:128-f80:128-n8:16:32:64-S128"
target triple = "x86_64-pc-linux-gnu"

%struct.ssl_st = type { i32, ptr, ptr, ptr, %struct.CRYPTO_REF_COUNT, ptr, %struct.crypto_ex_data_st }
%struct.CRYPTO_REF_COUNT = type { i32 }
%struct.crypto_ex_data_st = type { ptr, ptr }
%struct.ssl_connection_st = type { %struct.ssl_st, ptr, i32, ptr, ptr, ptr, i32, ptr, i32, i32, i32, i32, %struct.OSSL_TIME, %struct.OSSL_TIME, %struct.ossl_statem_st, i32, ptr, ptr, i64, i64, i64, %struct.ossl_quic_tls_callbacks_st, ptr, ptr, %struct.anon, ptr, ptr, ptr, i32, ptr, %struct.ssl_dane_st, ptr, ptr, ptr, ptr, i32, [64 x i8], [64 x i8], [64 x i8], [64 x i8], [64 x i8], [64 x i8], [64 x i8], [64 x i8], [64 x i8], [64 x i8], [64 x i8], [64 x i8], ptr, [64 x i8], i64, i32, i64, [32 x i8], ptr, ptr, ptr, i64, ptr, [32 x i8], i64, i32, ptr, ptr, i32, i32, ptr, ptr, ptr, ptr, ptr, i64, ptr, ptr, i64, i32, i32, i32, i64, i32, i32, i64, i64, i64, %struct.anon.1, ptr, i32, ptr, ptr, ptr, i32, ptr, ptr, ptr, i32, i32, i32, i32, ptr, i64, i32, ptr, %struct.srp_ctx_st, ptr, %struct.record_layer_st, ptr, ptr, ptr, ptr, i64, i32, i32, i32, i64, i64, i64, ptr, ptr, ptr, ptr, ptr, i64, ptr, i64, ptr, i64 }
%struct.OSSL_TIME = type { i64 }
%struct.ossl_statem_st = type { i32, i32, i32, i32, i32, i32, i32, i32, i32, i32, i32, i32, i32, ptr, ptr, ptr, i8 }
%struct.ossl_quic_tls_callbacks_st = type { ptr, ptr, ptr, ptr, ptr, ptr }
%struct.anon = type { i64, [32 x i8], [32 x i8], ptr, ptr, i32, i32, i32, i32, [2 x i8], i32, i32, i32, i32, %struct.anon.0, [64 x i8], i64, [64 x i8], i64, i32, i32, ptr, i64, ptr, i64, i32, i8, i8, i16, ptr, i16 }
%struct.anon.0 = type { [128 x i8], i64, [128 x i8], i64, i64, i32, ptr, ptr, [4 x ptr], [4 x i16], i64, i32, ptr, i64, ptr, i64, ptr, ptr, ptr, i32, i64, ptr, i32, ptr, i64, ptr, i64, ptr, i64, ptr, ptr, ptr, ptr, i64, i64, ptr, ptr, i32, i32, i32, i32 }
%struct.ssl_dane_st = type { ptr, ptr, ptr, ptr, ptr, i32, i32, i32, i64 }
%struct.anon.1 = type { [29 x i8], ptr, ptr, ptr, i32, ptr, i16, i32, %struct.anon.2, i32, i32, i64, ptr, i64, ptr, i64, ptr, i64, ptr, i64, ptr, i64, ptr, ptr, ptr, ptr, ptr, ptr, ptr, i64, ptr, i64, i32, i32, i32, i32, ptr, i64, i32, i8, i32, [4 x i32], i32, i8, i8, i8, i8 }
%struct.anon.2 = type { ptr, ptr, ptr, i64 }
%struct.srp_ctx_st = type { ptr, ptr, ptr, ptr, ptr, ptr, ptr, ptr, ptr, ptr, ptr, ptr, ptr, ptr, i32, i64 }
%struct.record_layer_st = type { ptr, ptr, ptr, ptr, ptr, ptr, ptr, ptr, i64, i32, i64, [4 x i8], i64, i64, i8, ptr, i32, ptr, ptr, ptr, i64, i64, i64, i64, [32 x %struct.tls_record_st] }
%struct.tls_record_st = type { ptr, i32, i8, ptr, ptr, i64, i64, i16, [8 x i8] }
%struct.ssl_ctx_st = type { ptr, ptr, ptr, ptr, ptr, ptr, ptr, i64, ptr, ptr, i32, %struct.OSSL_TIME, ptr, ptr, ptr, %struct.anon.3, %struct.CRYPTO_REF_COUNT, ptr, ptr, ptr, ptr, ptr, ptr, ptr, ptr, ptr, %struct.crypto_ex_data_st, ptr, ptr, ptr, ptr, ptr, ptr, ptr, i64, i32, i32, i32, i64, ptr, ptr, i32, ptr, ptr, i32, i64, [32 x i8], ptr, ptr, ptr, i32, ptr, ptr, ptr, i64, i64, i64, i64, ptr, ptr, ptr, ptr, ptr, %struct.anon.4, ptr, ptr, ptr, ptr, %struct.srp_ctx_st, %struct.dane_ctx_st, ptr, ptr, ptr, ptr, i32, i32, ptr, ptr, i64, i64, ptr, ptr, ptr, i64, ptr, ptr, i32, ptr, ptr, ptr, [14 x i32], [24 x ptr], [14 x ptr], [14 x i64], i64, ptr, ptr, ptr, i64, i64, ptr, i64, i64, i32, i32, i32, i32, ptr, i64, ptr, i64, i64, ptr, ptr }
%struct.anon.3 = type { i32, i32, i32, i32, i32, i32, i32, i32, i32, i32, i32 }
%struct.anon.4 = type { ptr, ptr, [16 x i8], ptr, ptr, ptr, ptr, ptr, i32, i8, i64, ptr, i64, ptr, i64, ptr, i64, ptr, ptr, i64, ptr, ptr, ptr, i64, ptr, ptr, ptr, ptr, [32 x i8] }
%struct.dane_ctx_st = type { ptr, ptr, i8, i64 }

; Function Attrs: nounwind uwtable
define i32 @dtls1_dispatch_alert(ptr noundef %0) #0 {
  %2 = alloca i32, align 4
  %3 = alloca ptr, align 8
  %4 = alloca i32, align 4
  %5 = alloca i32, align 4
  %6 = alloca ptr, align 8
  %7 = alloca [2 x i8], align 1
  %8 = alloca ptr, align 8
  %9 = alloca i64, align 8
  %10 = alloca ptr, align 8
  %11 = alloca i32, align 4
  store ptr %0, ptr %3, align 8, !tbaa !3
  call void @llvm.lifetime.start.p0(i64 4, ptr %4) #4
  call void @llvm.lifetime.start.p0(i64 4, ptr %5) #4
  call void @llvm.lifetime.start.p0(i64 8, ptr %6) #4
  store ptr null, ptr %6, align 8, !tbaa !9
  call void @llvm.lifetime.start.p0(i64 2, ptr %7) #4
  call void @llvm.lifetime.start.p0(i64 8, ptr %8) #4
  %12 = getelementptr inbounds [2 x i8], ptr %7, i64 0, i64 0
  store ptr %12, ptr %8, align 8, !tbaa !77
  call void @llvm.lifetime.start.p0(i64 8, ptr %9) #4
  call void @llvm.lifetime.start.p0(i64 8, ptr %10) #4
  %13 = load ptr, ptr %3, align 8, !tbaa !3
  %14 = icmp eq ptr %13, null
  br i1 %14, label %15, label %16

15:                                               ; preds = %1
  br label %26

16:                                               ; preds = %1
  %17 = load ptr, ptr %3, align 8, !tbaa !3
  %18 = getelementptr inbounds nuw %struct.ssl_st, ptr %17, i32 0, i32 0
  %19 = load i32, ptr %18, align 8, !tbaa !14
  %20 = icmp eq i32 %19, 0
  br i1 %20, label %21, label %23

21:                                               ; preds = %16
  %22 = load ptr, ptr %3, align 8, !tbaa !3
  br label %24

23:                                               ; preds = %16
  br label %24

24:                                               ; preds = %23, %21
  %25 = phi ptr [ %22, %21 ], [ null, %23 ]
  br label %26

26:                                               ; preds = %24, %15
  %27 = phi ptr [ null, %15 ], [ %25, %24 ]
  store ptr %27, ptr %10, align 8, !tbaa !23
  %28 = load ptr, ptr %10, align 8, !tbaa !23
  %29 = icmp eq ptr %28, null
  br i1 %29, label %30, label %31

30:                                               ; preds = %26
  store i32 0, ptr %2, align 4
  store i32 1, ptr %11, align 4
  br label %130

31:                                               ; preds = %26
  %32 = load ptr, ptr %10, align 8, !tbaa !23
  %33 = getelementptr inbounds nuw %struct.ssl_connection_st, ptr %32, i32 0, i32 24
  %34 = getelementptr inbounds nuw %struct.anon, ptr %33, i32 0, i32 8
  store i32 0, ptr %34, align 4, !tbaa !78
  %35 = getelementptr inbounds [2 x i8], ptr %7, i64 0, i64 0
  call void @llvm.memset.p0.i64(ptr align 1 %35, i8 0, i64 2, i1 false)
  %36 = load ptr, ptr %10, align 8, !tbaa !23
  %37 = getelementptr inbounds nuw %struct.ssl_connection_st, ptr %36, i32 0, i32 24
  %38 = getelementptr inbounds nuw %struct.anon, ptr %37, i32 0, i32 9
  %39 = getelementptr inbounds [2 x i8], ptr %38, i64 0, i64 0
  %40 = load i8, ptr %39, align 8, !tbaa !8
  %41 = load ptr, ptr %8, align 8, !tbaa !77
  %42 = getelementptr inbounds nuw i8, ptr %41, i32 1
  store ptr %42, ptr %8, align 8, !tbaa !77
  store i8 %40, ptr %41, align 1, !tbaa !8
  %43 = load ptr, ptr %10, align 8, !tbaa !23
  %44 = getelementptr inbounds nuw %struct.ssl_connection_st, ptr %43, i32 0, i32 24
  %45 = getelementptr inbounds nuw %struct.anon, ptr %44, i32 0, i32 9
  %46 = getelementptr inbounds [2 x i8], ptr %45, i64 0, i64 1
  %47 = load i8, ptr %46, align 1, !tbaa !8
  %48 = load ptr, ptr %8, align 8, !tbaa !77
  %49 = getelementptr inbounds nuw i8, ptr %48, i32 1
  store ptr %49, ptr %8, align 8, !tbaa !77
  store i8 %47, ptr %48, align 1, !tbaa !8
  %50 = load ptr, ptr %10, align 8, !tbaa !23
  %51 = getelementptr inbounds [2 x i8], ptr %7, i64 0, i64 0
  %52 = call i32 @do_dtls1_write(ptr noundef %50, i8 noundef zeroext 21, ptr noundef %51, i64 noundef 2, ptr noundef %9)
  store i32 %52, ptr %4, align 4, !tbaa !76
  %53 = load i32, ptr %4, align 4, !tbaa !76
  %54 = icmp sle i32 %53, 0
  br i1 %54, label %55, label %59

55:                                               ; preds = %31
  %56 = load ptr, ptr %10, align 8, !tbaa !23
  %57 = getelementptr inbounds nuw %struct.ssl_connection_st, ptr %56, i32 0, i32 24
  %58 = getelementptr inbounds nuw %struct.anon, ptr %57, i32 0, i32 8
  store i32 1, ptr %58, align 4, !tbaa !78
  br label %128

59:                                               ; preds = %31
  %60 = load ptr, ptr %10, align 8, !tbaa !23
  %61 = getelementptr inbounds nuw %struct.ssl_connection_st, ptr %60, i32 0, i32 4
  %62 = load ptr, ptr %61, align 8, !tbaa !79
  %63 = call i64 @BIO_ctrl(ptr noundef %62, i32 noundef 11, i64 noundef 0, ptr noundef null)
  %64 = load ptr, ptr %10, align 8, !tbaa !23
  %65 = getelementptr inbounds nuw %struct.ssl_connection_st, ptr %64, i32 0, i32 26
  %66 = load ptr, ptr %65, align 8, !tbaa !80
  %67 = icmp ne ptr %66, null
  br i1 %67, label %68, label %83

68:                                               ; preds = %59
  %69 = load ptr, ptr %10, align 8, !tbaa !23
  %70 = getelementptr inbounds nuw %struct.ssl_connection_st, ptr %69, i32 0, i32 26
  %71 = load ptr, ptr %70, align 8, !tbaa !80
  %72 = load ptr, ptr %10, align 8, !tbaa !23
  %73 = getelementptr inbounds nuw %struct.ssl_connection_st, ptr %72, i32 0, i32 2
  %74 = load i32, ptr %73, align 8, !tbaa !81
  %75 = load ptr, ptr %10, align 8, !tbaa !23
  %76 = getelementptr inbounds nuw %struct.ssl_connection_st, ptr %75, i32 0, i32 24
  %77 = getelementptr inbounds nuw %struct.anon, ptr %76, i32 0, i32 9
  %78 = getelementptr inbounds [2 x i8], ptr %77, i64 0, i64 0
  %79 = load ptr, ptr %3, align 8, !tbaa !3
  %80 = load ptr, ptr %10, align 8, !tbaa !23
  %81 = getelementptr inbounds nuw %struct.ssl_connection_st, ptr %80, i32 0, i32 27
  %82 = load ptr, ptr %81, align 8, !tbaa !82
  call void %71(i32 noundef 1, i32 noundef %74, i32 noundef 21, ptr noundef %78, i64 noundef 2, ptr noundef %79, ptr noundef %82)
  br label %83

83:                                               ; preds = %68, %59
  %84 = load ptr, ptr %10, align 8, !tbaa !23
  %85 = getelementptr inbounds nuw %struct.ssl_connection_st, ptr %84, i32 0, i32 63
  %86 = load ptr, ptr %85, align 8, !tbaa !83
  %87 = icmp ne ptr %86, null
  br i1 %87, label %88, label %92

88:                                               ; preds = %83
  %89 = load ptr, ptr %10, align 8, !tbaa !23
  %90 = getelementptr inbounds nuw %struct.ssl_connection_st, ptr %89, i32 0, i32 63
  %91 = load ptr, ptr %90, align 8, !tbaa !83
  store ptr %91, ptr %6, align 8, !tbaa !9
  br label %106

92:                                               ; preds = %83
  %93 = load ptr, ptr %3, align 8, !tbaa !3
  %94 = getelementptr inbounds nuw %struct.ssl_st, ptr %93, i32 0, i32 1
  %95 = load ptr, ptr %94, align 8, !tbaa !84
  %96 = getelementptr inbounds nuw %struct.ssl_ctx_st, ptr %95, i32 0, i32 31
  %97 = load ptr, ptr %96, align 8, !tbaa !85
  %98 = icmp ne ptr %97, null
  br i1 %98, label %99, label %105

99:                                               ; preds = %92
  %100 = load ptr, ptr %3, align 8, !tbaa !3
  %101 = getelementptr inbounds nuw %struct.ssl_st, ptr %100, i32 0, i32 1
  %102 = load ptr, ptr %101, align 8, !tbaa !84
  %103 = getelementptr inbounds nuw %struct.ssl_ctx_st, ptr %102, i32 0, i32 31
  %104 = load ptr, ptr %103, align 8, !tbaa !85
  store ptr %104, ptr %6, align 8, !tbaa !9
  br label %105

105:                                              ; preds = %99, %92
  br label %106

106:                                              ; preds = %105, %88
  %107 = load ptr, ptr %6, align 8, !tbaa !9
  %108 = icmp ne ptr %107, null
  br i1 %108, label %109, label %127

109:                                              ; preds = %106
  %110 = load ptr, ptr %10, align 8, !tbaa !23
  %111 = getelementptr inbounds nuw %struct.ssl_connection_st, ptr %110, i32 0, i32 24
  %112 = getelementptr inbounds nuw %struct.anon, ptr %111, i32 0, i32 9
  %113 = getelementptr inbounds [2 x i8], ptr %112, i64 0, i64 0
  %114 = load i8, ptr %113, align 8, !tbaa !8
  %115 = zext i8 %114 to i32
  %116 = shl i32 %115, 8
  %117 = load ptr, ptr %10, align 8, !tbaa !23
  %118 = getelementptr inbounds nuw %struct.ssl_connection_st, ptr %117, i32 0, i32 24
  %119 = getelementptr inbounds nuw %struct.anon, ptr %118, i32 0, i32 9
  %120 = getelementptr inbounds [2 x i8], ptr %119, i64 0, i64 1
  %121 = load i8, ptr %120, align 1, !tbaa !8
  %122 = zext i8 %121 to i32
  %123 = or i32 %116, %122
  store i32 %123, ptr %5, align 4, !tbaa !76
  %124 = load ptr, ptr %6, align 8, !tbaa !9
  %125 = load ptr, ptr %3, align 8, !tbaa !3
  %126 = load i32, ptr %5, align 4, !tbaa !76
  call void %124(ptr noundef %125, i32 noundef 16392, i32 noundef %126)
  br label %127

127:                                              ; preds = %109, %106
  br label %128

128:                                              ; preds = %127, %55
  %129 = load i32, ptr %4, align 4, !tbaa !76
  store i32 %129, ptr %2, align 4
  store i32 1, ptr %11, align 4
  br label %130

130:                                              ; preds = %128, %30
  call void @llvm.lifetime.end.p0(i64 8, ptr %10) #4
  call void @llvm.lifetime.end.p0(i64 8, ptr %9) #4
  call void @llvm.lifetime.end.p0(i64 8, ptr %8) #4
  call void @llvm.lifetime.end.p0(i64 2, ptr %7) #4
  call void @llvm.lifetime.end.p0(i64 8, ptr %6) #4
  call void @llvm.lifetime.end.p0(i64 4, ptr %5) #4
  call void @llvm.lifetime.end.p0(i64 4, ptr %4) #4
  %131 = load i32, ptr %2, align 4
  ret i32 %131
}