; Function Attrs: nounwind uwtable
define i32 @dtls1_dispatch_alert(ptr noundef %0) local_unnamed_addr #0 {
  %2 = alloca [2 x i8], align 1
  %3 = alloca i64, align 8
  call void @llvm.lifetime.start.p0(i64 2, ptr nonnull %2) #3
  call void @llvm.lifetime.start.p0(i64 8, ptr nonnull %3) #3
  %4 = icmp eq ptr %0, null
  br i1 %4, label %.thread, label %5

5:                                                ; preds = %1
  %6 = load i32, ptr %0, align 8, !tbaa !3
  %7 = icmp eq i32 %6, 0
  br i1 %7, label %8, label %.thread

8:                                                ; preds = %5
  %9 = getelementptr inbounds nuw i8, ptr %0, i64 452
  store i32 0, ptr %9, align 4, !tbaa !70
  %10 = getelementptr inbounds nuw i8, ptr %0, i64 456
  %11 = load i8, ptr %10, align 8, !tbaa !71
  %12 = getelementptr inbounds nuw i8, ptr %2, i64 1
  store i8 %11, ptr %2, align 1, !tbaa !71
  %13 = getelementptr inbounds nuw i8, ptr %0, i64 457
  %14 = load i8, ptr %13, align 1, !tbaa !71
  store i8 %14, ptr %12, align 1, !tbaa !71
  %15 = call i32 @do_dtls1_write(ptr noundef nonnull %0, i8 noundef zeroext 21, ptr noundef nonnull %2, i64 noundef 2, ptr noundef nonnull %3) #3
  %16 = icmp slt i32 %15, 1
  br i1 %16, label %17, label %18

17:                                               ; preds = %8
  store i32 1, ptr %9, align 4, !tbaa !70
  br label %.thread

18:                                               ; preds = %8
  %19 = getelementptr inbounds nuw i8, ptr %0, i64 88
  %20 = load ptr, ptr %19, align 8, !tbaa !72
  %21 = call i64 @BIO_ctrl(ptr noundef %20, i32 noundef 11, i64 noundef 0, ptr noundef null) #3
  %22 = getelementptr inbounds nuw i8, ptr %0, i64 1272
  %23 = load ptr, ptr %22, align 8, !tbaa !73
  %.not = icmp eq ptr %23, null
  br i1 %.not, label %29, label %24

24:                                               ; preds = %18
  %25 = getelementptr inbounds nuw i8, ptr %0, i64 72
  %26 = load i32, ptr %25, align 8, !tbaa !74
  %27 = getelementptr inbounds nuw i8, ptr %0, i64 1280
  %28 = load ptr, ptr %27, align 8, !tbaa !75
  call void %23(i32 noundef 1, i32 noundef %26, i32 noundef 21, ptr noundef nonnull %10, i64 noundef 2, ptr noundef nonnull %0, ptr noundef %28) #3
  br label %29

29:                                               ; preds = %24, %18
  %30 = getelementptr inbounds nuw i8, ptr %0, i64 2400
  %31 = load ptr, ptr %30, align 8, !tbaa !76
  %.not36 = icmp eq ptr %31, null
  br i1 %.not36, label %32, label %.thread39

32:                                               ; preds = %29
  %33 = getelementptr inbounds nuw i8, ptr %0, i64 8
  %34 = load ptr, ptr %33, align 8, !tbaa !77
  %35 = getelementptr inbounds nuw i8, ptr %34, i64 288
  %36 = load ptr, ptr %35, align 8, !tbaa !78
  %.not38 = icmp eq ptr %36, null
  br i1 %.not38, label %.thread, label %.thread39

.thread39:                                        ; preds = %29, %32
  %.03042 = phi ptr [ %36, %32 ], [ %31, %29 ]
  %37 = load i8, ptr %10, align 8, !tbaa !71
  %38 = zext i8 %37 to i32
  %39 = shl nuw nsw i32 %38, 8
  %40 = load i8, ptr %13, align 1, !tbaa !71
  %41 = zext i8 %40 to i32
  %42 = or disjoint i32 %39, %41
  call void %.03042(ptr noundef nonnull %0, i32 noundef 16392, i32 noundef %42) #3
  br label %.thread

.thread:                                          ; preds = %1, %5, %17, %.thread39, %32
  %.0 = phi i32 [ %15, %32 ], [ %15, %.thread39 ], [ %15, %17 ], [ 0, %5 ], [ 0, %1 ]
  call void @llvm.lifetime.end.p0(i64 8, ptr nonnull %3) #3
  call void @llvm.lifetime.end.p0(i64 2, ptr nonnull %2) #3
  ret i32 %.0
}